target datalayout = "e-m:e-p270:32:32-p271:32:32-p272:64:64-i64:64-i128:128-f80:128-n8:16:32:64-S128"
target triple = "x86_64-pc-linux-gnu"

%"class.cv::utils::trace::details::Region" = type <{ ptr, i32, [4 x i8] }>
%"class.cv::Size_" = type { i32, i32 }

; Function Attrs: mustprogress nounwind uwtable
define linkonce_odr hidden void @_ZN2cv5utils5trace7details6RegionD2Ev(ptr noundef nonnull align 8 dereferenceable(12) %0) unnamed_addr #2 comdat align 2 personality ptr @__gxx_personality_v0 {
  %2 = alloca ptr, align 8
  store ptr %0, ptr %2, align 8
  %3 = load ptr, ptr %2, align 8
  %4 = getelementptr inbounds %"class.cv::utils::trace::details::Region", ptr %3, i32 0, i32 1
  %5 = load i32, ptr %4, align 8
  %6 = icmp ne i32 %5, 0
  br i1 %6, label %7, label %9

7:                                                ; preds = %1
  invoke void @_ZN2cv5utils5trace7details6Region7destroyEv(ptr noundef nonnull align 8 dereferenceable(12) %3)
          to label %8 unwind label %10

8:                                                ; preds = %7
  br label %9

9:                                                ; preds = %8, %1
  ret void

10:                                               ; preds = %7
  %11 = landingpad { ptr, i32 }
          catch ptr null
  %12 = extractvalue { ptr, i32 } %11, 0
  call void @__clang_call_terminate(ptr %12) #12
  unreachable
}

; Function Attrs: mustprogress nounwind uwtable
define internal void @_ZN2cv12cpu_baselineL7cvtCopyEPKhmPhmNS_5Size_IiEEm(ptr noundef %0, i64 noundef %1, ptr noundef %2, i64 noundef %3, i64 %4, i64 noundef %5) #2 {
  %7 = alloca %"class.cv::Size_", align 4
  %8 = alloca ptr, align 8
  %9 = alloca i64, align 8
  %10 = alloca ptr, align 8
  %11 = alloca i64, align 8
  %12 = alloca i64, align 8
  %13 = alloca i64, align 8
  %14 = alloca i32, align 4
  store i64 %4, ptr %7, align 4
  store ptr %0, ptr %8, align 8
  store i64 %1, ptr %9, align 8
  store ptr %2, ptr %10, align 8
  store i64 %3, ptr %11, align 8
  store i64 %5, ptr %12, align 8
  %15 = getelementptr inbounds %"class.cv::Size_", ptr %7, i32 0, i32 0
  %16 = load i32, ptr %15, align 4
  %17 = sext i32 %16 to i64
  %18 = load i64, ptr %12, align 8
  %19 = mul i64 %17, %18
  store i64 %19, ptr %13, align 8
  store i32 0, ptr %14, align 4
  br label %20

20:                                               ; preds = %29, %6
  %21 = load i32, ptr %14, align 4
  %22 = getelementptr inbounds %"class.cv::Size_", ptr %7, i32 0, i32 1
  %23 = load i32, ptr %22, align 4
  %24 = icmp slt i32 %21, %23
  br i1 %24, label %25, label %38

25:                                               ; preds = %20
  %26 = load ptr, ptr %10, align 8
  %27 = load ptr, ptr %8, align 8
  %28 = load i64, ptr %13, align 8
  call void @llvm.memcpy.p0.p0.i64(ptr align 1 %26, ptr align 1 %27, i64 %28, i1 false)
  br label %29

29:                                               ; preds = %25
  %30 = load i32, ptr %14, align 4
  %31 = add nsw i32 %30, 1
  store i32 %31, ptr %14, align 4
  %32 = load i64, ptr %9, align 8
  %33 = load ptr, ptr %8, align 8
  %34 = getelementptr inbounds i8, ptr %33, i64 %32
  store ptr %34, ptr %8, align 8
  %35 = load i64, ptr %11, align 8
  %36 = load ptr, ptr %10, align 8
  %37 = getelementptr inbounds i8, ptr %36, i64 %35
  store ptr %37, ptr %10, align 8
  br label %20, !llvm.loop !11

38:                                               ; preds = %20
  ret void
}

; Function Attrs: mustprogress uwtable
define internal void @_ZN2cv12cpu_baselineL6cvt16uEPKhmS2_mPhmNS_5Size_IiEEPv(ptr noundef %0, i64 noundef %1, ptr noundef %2, i64 noundef %3, ptr noundef %4, i64 noundef %5, i64 %6, ptr noundef %7) #0 {
  %9 = alloca %"class.cv::Size_", align 4
  %10 = alloca ptr, align 8
  %11 = alloca i64, align 8
  %12 = alloca ptr, align 8
  %13 = alloca i64, align 8
  %14 = alloca ptr, align 8
  %15 = alloca i64, align 8
  %16 = alloca ptr, align 8
  %17 = alloca %"class.cv::utils::trace::details::Region", align 8
  %18 = alloca %"class.cv::Size_", align 4
  store i64 %6, ptr %9, align 4
  store ptr %0, ptr %10, align 8
  store i64 %1, ptr %11, align 8
  store ptr %2, ptr %12, align 8
  store i64 %3, ptr %13, align 8
  store ptr %4, ptr %14, align 8
  store i64 %5, ptr %15, align 8
  store ptr %7, ptr %16, align 8
  call void @_ZN2cv5utils5trace7details6RegionC1ERKNS3_21LocationStaticStorageE(ptr noundef nonnull align 8 dereferenceable(12) %17, ptr noundef nonnull align 8 dereferenceable(32) @_ZZN2cv12cpu_baselineL6cvt16uEPKhmS2_mPhmNS_5Size_IiEEPvE25__cv_trace_location_fn269)
  %19 = load ptr, ptr %10, align 8
  %20 = load i64, ptr %11, align 8
  %21 = load ptr, ptr %14, align 8
  %22 = load i64, ptr %15, align 8
  call void @llvm.memcpy.p0.p0.i64(ptr align 4 %18, ptr align 4 %9, i64 8, i1 false)
  %23 = load i64, ptr %18, align 4
  call void @_ZN2cv12cpu_baselineL7cvtCopyEPKhmPhmNS_5Size_IiEEm(ptr noundef %19, i64 noundef %20, ptr noundef %21, i64 noundef %22, i64 %23, i64 noundef 2)
  call void @_ZN2cv5utils5trace7details6RegionD2Ev(ptr noundef nonnull align 8 dereferenceable(12) %17) #11
  ret void
}